target datalayout = "e-m:e-p270:32:32-p271:32:32-p272:64:64-i64:64-i128:128-f80:128-n8:16:32:64-S128"
target triple = "x86_64-pc-linux-gnu"

%struct.Vec_Ptr_t_ = type { i32, i32, ptr }
%struct.Vec_Int_t_ = type { i32, i32, ptr }
%struct.If_Cut_t_ = type <{ float, float, float, float, i32, i32, i32, i64, [0 x i32] }>
%struct.If_Man_t_ = type { ptr, ptr, ptr, ptr, ptr, ptr, ptr, ptr, [5 x i32], i32, float, float, float, float, i32, float, i32, i32, [4 x ptr], ptr, i32, i32, i32, ptr, [3 x [32 x i32]], i32, i32, i32, ptr, ptr, ptr, ptr, ptr, ptr, ptr, i32, i32, i32, [16 x i32], i32, i32, i32, i32, ptr, ptr, ptr, ptr, ptr, i32, i32, [32 x i32], [32 x i32], i32, i32, i32, i32, ptr, [16 x ptr], [16 x ptr], [16 x ptr], [16 x ptr], [16 x ptr], [16 x ptr], [16 x ptr], ptr, ptr, ptr, ptr, [32 x i8], i32, i32, i32, [6 x i64], [2 x i32], [2 x i32], ptr, [15 x i32], ptr, ptr, ptr, [16 x i32], ptr, ptr, ptr, ptr, [2 x i32], [2 x i32], [2 x ptr], ptr }
%struct.If_Obj_t_ = type { i32, i32, i32, i32, i32, i32, ptr, ptr, ptr, float, float, float, %union.anon, ptr, %struct.If_Cut_t_ }
%union.anon = type { ptr }
%struct.Vec_Str_t_ = type { i32, i32, ptr }

; Function Attrs: inlinehint nounwind uwtable
define internal i32 @Abc_LitNotCond(i32 noundef %0, i32 noundef %1) #1 {
  %3 = alloca i32, align 4
  %4 = alloca i32, align 4
  store i32 %0, ptr %3, align 4, !tbaa !27
  store i32 %1, ptr %4, align 4, !tbaa !27
  %5 = load i32, ptr %3, align 4, !tbaa !27
  %6 = load i32, ptr %4, align 4, !tbaa !27
  %7 = icmp sgt i32 %6, 0
  %8 = zext i1 %7 to i32
  %9 = xor i32 %5, %8
  ret i32 %9
}

; Function Attrs: inlinehint nounwind uwtable
define internal i32 @Abc_LitIsCompl(i32 noundef %0) #1 {
  %2 = alloca i32, align 4
  store i32 %0, ptr %2, align 4, !tbaa !27
  %3 = load i32, ptr %2, align 4, !tbaa !27
  %4 = and i32 %3, 1
  ret i32 %4
}

; Function Attrs: inlinehint nounwind uwtable
define internal ptr @Vec_PtrEntry(ptr noundef %0, i32 noundef %1) #1 {
  %3 = alloca ptr, align 8
  %4 = alloca i32, align 4
  store ptr %0, ptr %3, align 8, !tbaa !22
  store i32 %1, ptr %4, align 4, !tbaa !27
  %5 = load ptr, ptr %3, align 8, !tbaa !22
  %6 = getelementptr inbounds nuw %struct.Vec_Ptr_t_, ptr %5, i32 0, i32 2
  %7 = load ptr, ptr %6, align 8, !tbaa !46
  %8 = load i32, ptr %4, align 4, !tbaa !27
  %9 = sext i32 %8 to i64
  %10 = getelementptr inbounds ptr, ptr %7, i64 %9
  %11 = load ptr, ptr %10, align 8, !tbaa !44
  ret ptr %11
}

; Function Attrs: inlinehint nounwind uwtable
define internal i32 @If_CutPinDelayGet(i64 noundef %0, i32 noundef %1) #1 {
  %3 = alloca i64, align 8
  %4 = alloca i32, align 4
  store i64 %0, ptr %3, align 8, !tbaa !116
  store i32 %1, ptr %4, align 4, !tbaa !27
  %5 = load i64, ptr %3, align 8, !tbaa !116
  %6 = load i32, ptr %4, align 4, !tbaa !27
  %7 = shl i32 %6, 2
  %8 = zext i32 %7 to i64
  %9 = lshr i64 %5, %8
  %10 = and i64 %9, 15
  %11 = trunc i64 %10 to i32
  ret i32 %11
}

; Function Attrs: inlinehint nounwind uwtable
define internal ptr @Vec_StrEntryP(ptr noundef %0, i32 noundef %1) #1 {
  %3 = alloca ptr, align 8
  %4 = alloca i32, align 4
  store ptr %0, ptr %3, align 8, !tbaa !277
  store i32 %1, ptr %4, align 4, !tbaa !27
  %5 = load ptr, ptr %3, align 8, !tbaa !277
  %6 = getelementptr inbounds nuw %struct.Vec_Str_t_, ptr %5, i32 0, i32 2
  %7 = load ptr, ptr %6, align 8, !tbaa !354
  %8 = load i32, ptr %4, align 4, !tbaa !27
  %9 = sext i32 %8 to i64
  %10 = getelementptr inbounds i8, ptr %7, i64 %9
  ret ptr %10
}

; Function Attrs: inlinehint nounwind uwtable
define internal i32 @Abc_MaxInt(i32 noundef %0, i32 noundef %1) #1 {
  %3 = alloca i32, align 4
  %4 = alloca i32, align 4
  store i32 %0, ptr %3, align 4, !tbaa !27
  store i32 %1, ptr %4, align 4, !tbaa !27
  %5 = load i32, ptr %3, align 4, !tbaa !27
  %6 = load i32, ptr %4, align 4, !tbaa !27
  %7 = icmp sgt i32 %5, %6
  br i1 %7, label %8, label %10

8:                                                ; preds = %2
  %9 = load i32, ptr %3, align 4, !tbaa !27
  br label %12

10:                                               ; preds = %2
  %11 = load i32, ptr %4, align 4, !tbaa !27
  br label %12

12:                                               ; preds = %10, %8
  %13 = phi i32 [ %9, %8 ], [ %11, %10 ]
  ret i32 %13
}

; Function Attrs: inlinehint nounwind uwtable
define internal i32 @Abc_Lit2LitL(ptr noundef %0, i32 noundef %1) #1 {
  %3 = alloca ptr, align 8
  %4 = alloca i32, align 4
  store ptr %0, ptr %3, align 8, !tbaa !60
  store i32 %1, ptr %4, align 4, !tbaa !27
  %5 = load ptr, ptr %3, align 8, !tbaa !60
  %6 = load i32, ptr %4, align 4, !tbaa !27
  %7 = call i32 @Abc_Lit2Var(i32 noundef %6)
  %8 = sext i32 %7 to i64
  %9 = getelementptr inbounds i32, ptr %5, i64 %8
  %10 = load i32, ptr %9, align 4, !tbaa !27
  %11 = load i32, ptr %4, align 4, !tbaa !27
  %12 = call i32 @Abc_LitIsCompl(i32 noundef %11)
  %13 = call i32 @Abc_LitNotCond(i32 noundef %10, i32 noundef %12)
  ret i32 %13
}

; Function Attrs: inlinehint nounwind uwtable
define internal i32 @If_CutTruthLit(ptr noundef %0) #1 {
  %2 = alloca ptr, align 8
  store ptr %0, ptr %2, align 8, !tbaa !263
  %3 = load ptr, ptr %2, align 8, !tbaa !263
  %4 = getelementptr inbounds nuw %struct.If_Cut_t_, ptr %3, i32 0, i32 4
  %5 = load i32, ptr %4, align 4, !tbaa !278
  ret i32 %5
}

; Function Attrs: inlinehint nounwind uwtable
define internal ptr @Vec_IntArray(ptr noundef %0) #1 {
  %2 = alloca ptr, align 8
  store ptr %0, ptr %2, align 8, !tbaa !47
  %3 = load ptr, ptr %2, align 8, !tbaa !47
  %4 = getelementptr inbounds nuw %struct.Vec_Int_t_, ptr %3, i32 0, i32 2
  %5 = load ptr, ptr %4, align 8, !tbaa !50
  ret ptr %5
}

; Function Attrs: inlinehint nounwind uwtable
define internal ptr @If_ManObj(ptr noundef %0, i32 noundef %1) #1 {
  %3 = alloca ptr, align 8
  %4 = alloca i32, align 4
  store ptr %0, ptr %3, align 8, !tbaa !261
  store i32 %1, ptr %4, align 4, !tbaa !27
  %5 = load ptr, ptr %3, align 8, !tbaa !261
  %6 = getelementptr inbounds nuw %struct.If_Man_t_, ptr %5, i32 0, i32 5
  %7 = load ptr, ptr %6, align 8, !tbaa !353
  %8 = load i32, ptr %4, align 4, !tbaa !27
  %9 = call ptr @Vec_PtrEntry(ptr noundef %7, i32 noundef %8)
  ret ptr %9
}

; Function Attrs: inlinehint nounwind uwtable
define internal void @If_CutPinDelayTranslate(i64 noundef %0, i32 noundef %1, ptr noundef %2) #1 {
  %4 = alloca i64, align 8
  %5 = alloca i32, align 4
  %6 = alloca ptr, align 8
  %7 = alloca i32, align 4
  %8 = alloca i32, align 4
  store i64 %0, ptr %4, align 8, !tbaa !116
  store i32 %1, ptr %5, align 4, !tbaa !27
  store ptr %2, ptr %6, align 8, !tbaa !64
  call void @llvm.lifetime.start.p0(i64 4, ptr %7) #15
  call void @llvm.lifetime.start.p0(i64 4, ptr %8) #15
  store i32 0, ptr %7, align 4, !tbaa !27
  br label %9

9:                                                ; preds = %24, %3
  %10 = load i32, ptr %7, align 4, !tbaa !27
  %11 = load i32, ptr %5, align 4, !tbaa !27
  %12 = icmp slt i32 %10, %11
  br i1 %12, label %13, label %27

13:                                               ; preds = %9
  %14 = load i64, ptr %4, align 8, !tbaa !116
  %15 = load i32, ptr %7, align 4, !tbaa !27
  %16 = call i32 @If_CutPinDelayGet(i64 noundef %14, i32 noundef %15)
  store i32 %16, ptr %8, align 4, !tbaa !27
  %17 = load i32, ptr %8, align 4, !tbaa !27
  %18 = sub nsw i32 %17, 1
  %19 = trunc i32 %18 to i8
  %20 = load ptr, ptr %6, align 8, !tbaa !64
  %21 = load i32, ptr %7, align 4, !tbaa !27
  %22 = sext i32 %21 to i64
  %23 = getelementptr inbounds i8, ptr %20, i64 %22
  store i8 %19, ptr %23, align 1, !tbaa !124
  br label %24

24:                                               ; preds = %13
  %25 = load i32, ptr %7, align 4, !tbaa !27
  %26 = add nsw i32 %25, 1
  store i32 %26, ptr %7, align 4, !tbaa !27
  br label %9, !llvm.loop !279

27:                                               ; preds = %9
  call void @llvm.lifetime.end.p0(i64 4, ptr %8) #15
  call void @llvm.lifetime.end.p0(i64 4, ptr %7) #15
  ret void
}

; Function Attrs: inlinehint nounwind uwtable
define internal ptr @If_CutDsdPerm(ptr noundef %0, ptr noundef %1) #1 {
  %3 = alloca ptr, align 8
  %4 = alloca ptr, align 8
  store ptr %0, ptr %3, align 8, !tbaa !261
  store ptr %1, ptr %4, align 8, !tbaa !263
  %5 = load ptr, ptr %3, align 8, !tbaa !261
  %6 = getelementptr inbounds nuw %struct.If_Man_t_, ptr %5, i32 0, i32 60
  %7 = load ptr, ptr %4, align 8, !tbaa !263
  %8 = getelementptr inbounds nuw %struct.If_Cut_t_, ptr %7, i32 0, i32 7
  %9 = load i64, ptr %8, align 4
  %10 = lshr i64 %9, 24
  %11 = and i64 %10, 255
  %12 = trunc i64 %11 to i32
  %13 = zext i32 %12 to i64
  %14 = getelementptr inbounds nuw [16 x ptr], ptr %6, i64 0, i64 %13
  %15 = load ptr, ptr %14, align 8, !tbaa !277
  %16 = load ptr, ptr %4, align 8, !tbaa !263
  %17 = getelementptr inbounds nuw %struct.If_Cut_t_, ptr %16, i32 0, i32 4
  %18 = load i32, ptr %17, align 4, !tbaa !278
  %19 = call i32 @Abc_Lit2Var(i32 noundef %18)
  %20 = load ptr, ptr %4, align 8, !tbaa !263
  %21 = getelementptr inbounds nuw %struct.If_Cut_t_, ptr %20, i32 0, i32 7
  %22 = load i64, ptr %21, align 4
  %23 = lshr i64 %22, 24
  %24 = and i64 %23, 255
  %25 = trunc i64 %24 to i32
  %26 = call i32 @Abc_MaxInt(i32 noundef 6, i32 noundef %25)
  %27 = mul nsw i32 %19, %26
  %28 = call ptr @Vec_StrEntryP(ptr noundef %15, i32 noundef %27)
  ret ptr %28
}

; Function Attrs: inlinehint nounwind uwtable
define internal i32 @Abc_Lit2Var(i32 noundef %0) #1 {
  %2 = alloca i32, align 4
  store i32 %0, ptr %2, align 4, !tbaa !27
  %3 = load i32, ptr %2, align 4, !tbaa !27
  %4 = ashr i32 %3, 1
  ret i32 %4
}

; Function Attrs: inlinehint nounwind uwtable
define internal i32 @If_CutDsdLit(ptr noundef %0, ptr noundef %1) #1 {
  %3 = alloca ptr, align 8
  %4 = alloca ptr, align 8
  store ptr %0, ptr %3, align 8, !tbaa !261
  store ptr %1, ptr %4, align 8, !tbaa !263
  %5 = load ptr, ptr %3, align 8, !tbaa !261
  %6 = getelementptr inbounds nuw %struct.If_Man_t_, ptr %5, i32 0, i32 59
  %7 = load ptr, ptr %4, align 8, !tbaa !263
  %8 = getelementptr inbounds nuw %struct.If_Cut_t_, ptr %7, i32 0, i32 7
  %9 = load i64, ptr %8, align 4
  %10 = lshr i64 %9, 24
  %11 = and i64 %10, 255
  %12 = trunc i64 %11 to i32
  %13 = zext i32 %12 to i64
  %14 = getelementptr inbounds nuw [16 x ptr], ptr %6, i64 0, i64 %13
  %15 = load ptr, ptr %14, align 8, !tbaa !47
  %16 = call ptr @Vec_IntArray(ptr noundef %15)
  %17 = load ptr, ptr %4, align 8, !tbaa !263
  %18 = call i32 @If_CutTruthLit(ptr noundef %17)
  %19 = call i32 @Abc_Lit2LitL(ptr noundef %16, i32 noundef %18)
  ret i32 %19
}

; Function Attrs: inlinehint nounwind uwtable
define internal i32 @If_CutLeaveNum(ptr noundef %0) #1 {
  %2 = alloca ptr, align 8
  store ptr %0, ptr %2, align 8, !tbaa !263
  %3 = load ptr, ptr %2, align 8, !tbaa !263
  %4 = getelementptr inbounds nuw %struct.If_Cut_t_, ptr %3, i32 0, i32 7
  %5 = load i64, ptr %4, align 4
  %6 = lshr i64 %5, 24
  %7 = and i64 %6, 255
  %8 = trunc i64 %7 to i32
  ret i32 %8
}

; Function Attrs: inlinehint nounwind uwtable
define internal ptr @If_ObjCutBest(ptr noundef %0) #1 {
  %2 = alloca ptr, align 8
  store ptr %0, ptr %2, align 8, !tbaa !276
  %3 = load ptr, ptr %2, align 8, !tbaa !276
  %4 = getelementptr inbounds nuw %struct.If_Obj_t_, ptr %3, i32 0, i32 14
  ret ptr %4
}

; Function Attrs: inlinehint nounwind uwtable
define internal ptr @If_CutLeaf(ptr noundef %0, ptr noundef %1, i32 noundef %2) #1 {
  %4 = alloca ptr, align 8
  %5 = alloca ptr, align 8
  %6 = alloca i32, align 4
  store ptr %0, ptr %4, align 8, !tbaa !261
  store ptr %1, ptr %5, align 8, !tbaa !263
  store i32 %2, ptr %6, align 4, !tbaa !27
  %7 = load ptr, ptr %4, align 8, !tbaa !261
  %8 = load ptr, ptr %5, align 8, !tbaa !263
  %9 = getelementptr inbounds nuw %struct.If_Cut_t_, ptr %8, i32 0, i32 8
  %10 = load i32, ptr %6, align 4, !tbaa !27
  %11 = sext i32 %10 to i64
  %12 = getelementptr inbounds [0 x i32], ptr %9, i64 0, i64 %11
  %13 = load i32, ptr %12, align 4, !tbaa !27
  %14 = call ptr @If_ManObj(ptr noundef %7, i32 noundef %13)
  ret ptr %14
}

; Function Attrs: nounwind uwtable
define i32 @If_CutDsdBalancePinDelays(ptr noundef %0, ptr noundef %1, ptr noundef %2) #0 {
  %4 = alloca i32, align 4
  %5 = alloca ptr, align 8
  %6 = alloca ptr, align 8
  %7 = alloca ptr, align 8
  %8 = alloca i64, align 8
  %9 = alloca i32, align 4
  %10 = alloca i32, align 4
  %11 = alloca i32, align 4
  %12 = alloca [15 x i32], align 16
  store ptr %0, ptr %5, align 8, !tbaa !261
  store ptr %1, ptr %6, align 8, !tbaa !263
  store ptr %2, ptr %7, align 8, !tbaa !64
  %13 = load ptr, ptr %6, align 8, !tbaa !263
  %14 = getelementptr inbounds nuw %struct.If_Cut_t_, ptr %13, i32 0, i32 7
  %15 = load i64, ptr %14, align 4
  %16 = lshr i64 %15, 24
  %17 = and i64 %16, 255
  %18 = trunc i64 %17 to i32
  %19 = icmp eq i32 %18, 0
  br i1 %19, label %20, label %21

20:                                               ; preds = %3
  store i32 0, ptr %4, align 4
  br label %80

21:                                               ; preds = %3
  %22 = load ptr, ptr %6, align 8, !tbaa !263
  %23 = getelementptr inbounds nuw %struct.If_Cut_t_, ptr %22, i32 0, i32 7
  %24 = load i64, ptr %23, align 4
  %25 = lshr i64 %24, 24
  %26 = and i64 %25, 255
  %27 = trunc i64 %26 to i32
  %28 = icmp eq i32 %27, 1
  br i1 %28, label %29, label %39

29:                                               ; preds = %21
  %30 = load ptr, ptr %7, align 8, !tbaa !64
  %31 = getelementptr inbounds i8, ptr %30, i64 0
  store i8 0, ptr %31, align 1, !tbaa !124
  %32 = load ptr, ptr %5, align 8, !tbaa !261
  %33 = load ptr, ptr %6, align 8, !tbaa !263
  %34 = call ptr @If_CutLeaf(ptr noundef %32, ptr noundef %33, i32 noundef 0)
  %35 = call ptr @If_ObjCutBest(ptr noundef %34)
  %36 = getelementptr inbounds nuw %struct.If_Cut_t_, ptr %35, i32 0, i32 3
  %37 = load float, ptr %36, align 4, !tbaa !265
  %38 = fptosi float %37 to i32
  store i32 %38, ptr %4, align 4
  br label %80

39:                                               ; preds = %21
  call void @llvm.lifetime.start.p0(i64 8, ptr %8) #15
  store i64 0, ptr %8, align 8, !tbaa !116
  call void @llvm.lifetime.start.p0(i64 4, ptr %9) #15
  call void @llvm.lifetime.start.p0(i64 4, ptr %10) #15
  call void @llvm.lifetime.start.p0(i64 4, ptr %11) #15
  store i32 0, ptr %11, align 4, !tbaa !27
  call void @llvm.lifetime.start.p0(i64 60, ptr %12) #15
  store i32 0, ptr %9, align 4, !tbaa !27
  br label %40

40:                                               ; preds = %57, %39
  %41 = load i32, ptr %9, align 4, !tbaa !27
  %42 = load ptr, ptr %6, align 8, !tbaa !263
  %43 = call i32 @If_CutLeaveNum(ptr noundef %42)
  %44 = icmp slt i32 %41, %43
  br i1 %44, label %45, label %60

45:                                               ; preds = %40
  %46 = load ptr, ptr %5, align 8, !tbaa !261
  %47 = load ptr, ptr %6, align 8, !tbaa !263
  %48 = load i32, ptr %9, align 4, !tbaa !27
  %49 = call ptr @If_CutLeaf(ptr noundef %46, ptr noundef %47, i32 noundef %48)
  %50 = call ptr @If_ObjCutBest(ptr noundef %49)
  %51 = getelementptr inbounds nuw %struct.If_Cut_t_, ptr %50, i32 0, i32 3
  %52 = load float, ptr %51, align 4, !tbaa !265
  %53 = fptosi float %52 to i32
  %54 = load i32, ptr %9, align 4, !tbaa !27
  %55 = sext i32 %54 to i64
  %56 = getelementptr inbounds [15 x i32], ptr %12, i64 0, i64 %55
  store i32 %53, ptr %56, align 4, !tbaa !27
  br label %57

57:                                               ; preds = %45
  %58 = load i32, ptr %9, align 4, !tbaa !27
  %59 = add nsw i32 %58, 1
  store i32 %59, ptr %9, align 4, !tbaa !27
  br label %40, !llvm.loop !267

60:                                               ; preds = %40
  %61 = load ptr, ptr %5, align 8, !tbaa !261
  %62 = getelementptr inbounds nuw %struct.If_Man_t_, ptr %61, i32 0, i32 56
  %63 = load ptr, ptr %62, align 8, !tbaa !268
  %64 = load ptr, ptr %5, align 8, !tbaa !261
  %65 = load ptr, ptr %6, align 8, !tbaa !263
  %66 = call i32 @If_CutDsdLit(ptr noundef %64, ptr noundef %65)
  %67 = call i32 @Abc_Lit2Var(i32 noundef %66)
  %68 = getelementptr inbounds [15 x i32], ptr %12, i64 0, i64 0
  %69 = load ptr, ptr %6, align 8, !tbaa !263
  %70 = call i32 @If_CutLeaveNum(ptr noundef %69)
  %71 = load ptr, ptr %5, align 8, !tbaa !261
  %72 = load ptr, ptr %6, align 8, !tbaa !263
  %73 = call ptr @If_CutDsdPerm(ptr noundef %71, ptr noundef %72)
  %74 = call i32 @If_CutDsdBalancePinDelays_rec(ptr noundef %63, i32 noundef %67, ptr noundef %68, ptr noundef %8, ptr noundef %11, i32 noundef %70, ptr noundef %73)
  store i32 %74, ptr %10, align 4, !tbaa !27
  %75 = load i64, ptr %8, align 8, !tbaa !116
  %76 = load ptr, ptr %6, align 8, !tbaa !263
  %77 = call i32 @If_CutLeaveNum(ptr noundef %76)
  %78 = load ptr, ptr %7, align 8, !tbaa !64
  call void @If_CutPinDelayTranslate(i64 noundef %75, i32 noundef %77, ptr noundef %78)
  %79 = load i32, ptr %10, align 4, !tbaa !27
  store i32 %79, ptr %4, align 4
  call void @llvm.lifetime.end.p0(i64 60, ptr %12) #15
  call void @llvm.lifetime.end.p0(i64 4, ptr %11) #15
  call void @llvm.lifetime.end.p0(i64 4, ptr %10) #15
  call void @llvm.lifetime.end.p0(i64 4, ptr %9) #15
  call void @llvm.lifetime.end.p0(i64 8, ptr %8) #15
  br label %80

80:                                               ; preds = %60, %29, %20
  %81 = load i32, ptr %4, align 4
  ret i32 %81
}