; Function Attrs: nounwind uwtable
define i32 @If_CutDsdBalancePinDelays(ptr noundef readonly captures(none) %0, ptr noundef readonly captures(none) %1, ptr noundef writeonly captures(none) %2) local_unnamed_addr #4 {
  %4 = alloca i64, align 8
  %5 = alloca i32, align 4
  %6 = alloca [15 x i32], align 16
  %7 = getelementptr inbounds nuw i8, ptr %1, i64 28
  %8 = load i64, ptr %7, align 4
  %9 = trunc i64 %8 to i32
  %10 = icmp ult i32 %9, 16777216
  br i1 %10, label %70, label %11

11:                                               ; preds = %3
  %.mask = and i32 %9, -16777216
  %12 = icmp eq i32 %.mask, 16777216
  br i1 %12, label %13, label %.lr.ph

13:                                               ; preds = %11
  store i8 0, ptr %2, align 1, !tbaa !137
  %14 = getelementptr i8, ptr %0, i64 40
  %.val = load ptr, ptr %14, align 8, !tbaa !246
  %15 = getelementptr i8, ptr %.val, i64 8
  %.val.val = load ptr, ptr %15, align 8, !tbaa !23
  %16 = getelementptr inbounds nuw i8, ptr %1, i64 36
  %17 = load i32, ptr %16, align 4, !tbaa !40
  %18 = sext i32 %17 to i64
  %19 = getelementptr inbounds ptr, ptr %.val.val, i64 %18
  %20 = load ptr, ptr %19, align 8, !tbaa !24
  %21 = getelementptr inbounds nuw i8, ptr %20, i64 92
  %22 = load float, ptr %21, align 4, !tbaa !255
  %23 = fptosi float %22 to i32
  br label %70

.lr.ph:                                           ; preds = %11
  call void @llvm.lifetime.start.p0(i64 8, ptr nonnull %4) #39
  store i64 0, ptr %4, align 8, !tbaa !51
  call void @llvm.lifetime.start.p0(i64 4, ptr nonnull %5) #39
  store i32 0, ptr %5, align 4, !tbaa !40
  call void @llvm.lifetime.start.p0(i64 60, ptr nonnull %6) #39
  %24 = lshr i32 %9, 24
  %25 = getelementptr i8, ptr %0, i64 40
  %.val23 = load ptr, ptr %25, align 8, !tbaa !246
  %26 = getelementptr i8, ptr %.val23, i64 8
  %.val23.val = load ptr, ptr %26, align 8, !tbaa !23
  %27 = getelementptr inbounds nuw i8, ptr %1, i64 36
  %wide.trip.count = zext nneg i32 %24 to i64
  br label %28

28:                                               ; preds = %.lr.ph, %28
  %indvars.iv = phi i64 [ 0, %.lr.ph ], [ %indvars.iv.next, %28 ]
  %29 = getelementptr inbounds nuw [0 x i32], ptr %27, i64 0, i64 %indvars.iv
  %30 = load i32, ptr %29, align 4, !tbaa !40
  %31 = sext i32 %30 to i64
  %32 = getelementptr inbounds ptr, ptr %.val23.val, i64 %31
  %33 = load ptr, ptr %32, align 8, !tbaa !24
  %34 = getelementptr inbounds nuw i8, ptr %33, i64 92
  %35 = load float, ptr %34, align 4, !tbaa !255
  %36 = fptosi float %35 to i32
  %37 = getelementptr inbounds nuw [15 x i32], ptr %6, i64 0, i64 %indvars.iv
  store i32 %36, ptr %37, align 4, !tbaa !40
  %indvars.iv.next = add nuw nsw i64 %indvars.iv, 1
  %exitcond.not = icmp eq i64 %indvars.iv.next, %wide.trip.count
  br i1 %exitcond.not, label %._crit_edge, label %28, !llvm.loop !257

._crit_edge:                                      ; preds = %28
  %38 = getelementptr inbounds nuw i8, ptr %0, i64 1056
  %39 = load ptr, ptr %38, align 8, !tbaa !258
  %40 = getelementptr i8, ptr %1, i64 16
  %.val27 = load i32, ptr %40, align 4, !tbaa !259
  %41 = getelementptr inbounds nuw i8, ptr %0, i64 1320
  %42 = lshr i64 %8, 24
  %43 = and i64 %42, 255
  %44 = getelementptr inbounds nuw [16 x ptr], ptr %41, i64 0, i64 %43
  %45 = load ptr, ptr %44, align 8, !tbaa !90
  %46 = getelementptr i8, ptr %45, i64 8
  %.val.i = load ptr, ptr %46, align 8, !tbaa !39
  %47 = ashr i32 %.val27, 1
  %48 = sext i32 %47 to i64
  %49 = getelementptr inbounds i32, ptr %.val.i, i64 %48
  %50 = load i32, ptr %49, align 4, !tbaa !40
  %51 = ashr i32 %50, 1
  %52 = getelementptr inbounds nuw i8, ptr %0, i64 1448
  %53 = getelementptr inbounds nuw [16 x ptr], ptr %52, i64 0, i64 %43
  %54 = load ptr, ptr %53, align 8, !tbaa !260
  %55 = tail call i32 @llvm.umax.i32(i32 %24, i32 6)
  %56 = mul nsw i32 %47, %55
  %57 = getelementptr i8, ptr %54, i64 8
  %.val.i31 = load ptr, ptr %57, align 8, !tbaa !261
  %58 = sext i32 %56 to i64
  %59 = getelementptr inbounds i8, ptr %.val.i31, i64 %58
  %60 = call i32 @If_CutDsdBalancePinDelays_rec(ptr noundef %39, i32 noundef %51, ptr noundef nonnull %6, ptr noundef nonnull %4, ptr noundef nonnull %5, i32 noundef %24, ptr noundef %59)
  %61 = load i64, ptr %4, align 8, !tbaa !51
  %.val26 = load i64, ptr %7, align 4
  %62 = and i64 %.val26, 4278190080
  %.not.i = icmp eq i64 %62, 0
  br i1 %.not.i, label %If_CutPinDelayTranslate.exit, label %.lr.ph.preheader.i

.lr.ph.preheader.i:                               ; preds = %._crit_edge
  %63 = lshr i64 %.val26, 24
  %wide.trip.count.i = and i64 %63, 255
  br label %.lr.ph.i

.lr.ph.i:                                         ; preds = %.lr.ph.i, %.lr.ph.preheader.i
  %indvars.iv.i = phi i64 [ 0, %.lr.ph.preheader.i ], [ %indvars.iv.next.i, %.lr.ph.i ]
  %64 = shl i64 %indvars.iv.i, 2
  %65 = lshr i64 %61, %64
  %66 = trunc i64 %65 to i8
  %67 = and i8 %66, 15
  %68 = add nsw i8 %67, -1
  %69 = getelementptr inbounds nuw i8, ptr %2, i64 %indvars.iv.i
  store i8 %68, ptr %69, align 1, !tbaa !137
  %indvars.iv.next.i = add nuw nsw i64 %indvars.iv.i, 1
  %exitcond.not.i = icmp eq i64 %indvars.iv.next.i, %wide.trip.count.i
  br i1 %exitcond.not.i, label %If_CutPinDelayTranslate.exit, label %.lr.ph.i, !llvm.loop !263

If_CutPinDelayTranslate.exit:                     ; preds = %.lr.ph.i, %._crit_edge
  call void @llvm.lifetime.end.p0(i64 60, ptr nonnull %6) #39
  call void @llvm.lifetime.end.p0(i64 4, ptr nonnull %5) #39
  call void @llvm.lifetime.end.p0(i64 8, ptr nonnull %4) #39
  br label %70

70:                                               ; preds = %3, %If_CutPinDelayTranslate.exit, %13
  %.0 = phi i32 [ %23, %13 ], [ %60, %If_CutPinDelayTranslate.exit ], [ 0, %3 ]
  ret i32 %.0
}